target datalayout = "e-m:e-p270:32:32-p271:32:32-p272:64:64-i64:64-i128:128-f80:128-n8:16:32:64-S128"
target triple = "x86_64-unknown-linux-gnu"

%"class.std::basic_string_view" = type { i64, ptr }

@.str.116 = private unnamed_addr constant [15 x i8] c"VerifyUtf8Cord\00", align 1
@.str.117 = private unnamed_addr constant [25 x i8] c"VerifyUTF8CordNamedField\00", align 1

; Function Attrs: noreturn nounwind uwtable
define linkonce_odr hidden void @__clang_call_terminate(ptr noundef %0) #13 comdat {
  %2 = call ptr @__cxa_begin_catch(ptr %0) #3
  call void @_ZSt9terminatev() #23
  unreachable
}

; Function Attrs: mustprogress nounwind uwtable
define linkonce_odr hidden noundef i64 @_ZNSt11char_traitsIcE6lengthEPKc(ptr noundef %__s) #5 comdat align 2 {
entry:
  %__s.addr = alloca ptr, align 8
  store ptr %__s, ptr %__s.addr, align 8
  %0 = load ptr, ptr %__s.addr, align 8
  %call = call i64 @strlen(ptr noundef %0) #3
  ret i64 %call
}

; Function Attrs: mustprogress nounwind uwtable
define linkonce_odr hidden void @_ZNSt17basic_string_viewIcSt11char_traitsIcEEC2EPKc(ptr noundef nonnull align 8 dereferenceable(16) %this, ptr noundef nonnull %__str) unnamed_addr #5 comdat align 2 personality ptr @__gxx_personality_v0 {
entry:
  %this.addr = alloca ptr, align 8
  %__str.addr = alloca ptr, align 8
  store ptr %this, ptr %this.addr, align 8
  store ptr %__str, ptr %__str.addr, align 8
  %this1 = load ptr, ptr %this.addr, align 8
  %_M_len = getelementptr inbounds %"class.std::basic_string_view", ptr %this1, i32 0, i32 0
  %0 = load ptr, ptr %__str.addr, align 8
  %call = invoke noundef i64 @_ZNSt11char_traitsIcE6lengthEPKc(ptr noundef %0)
          to label %invoke.cont unwind label %terminate.lpad

invoke.cont:                                      ; preds = %entry
  store i64 %call, ptr %_M_len, align 8
  %_M_str = getelementptr inbounds %"class.std::basic_string_view", ptr %this1, i32 0, i32 1
  %1 = load ptr, ptr %__str.addr, align 8
  store ptr %1, ptr %_M_str, align 8
  ret void

terminate.lpad:                                   ; preds = %entry
  %2 = landingpad { ptr, i32 }
          catch ptr null
  %3 = extractvalue { ptr, i32 } %2, 0
  call void @__clang_call_terminate(ptr %3) #23
  unreachable
}

; Function Attrs: mustprogress uwtable
define hidden void @_ZN6google8protobuf8compiler3cpp28GenerateUtf8CheckCodeForCordEPNS0_2io7PrinterEPKNS0_15FieldDescriptorERKNS2_7OptionsEbSt17basic_string_viewIcSt11char_traitsIcEE(ptr noundef %p, ptr noundef %field, ptr noundef nonnull align 8 dereferenceable(206) %options, i1 noundef zeroext %for_parse, i64 %parameters.coerce0, ptr %parameters.coerce1) #4 {
entry:
  %parameters = alloca %"class.std::basic_string_view", align 8
  %p.addr = alloca ptr, align 8
  %field.addr = alloca ptr, align 8
  %options.addr = alloca ptr, align 8
  %for_parse.addr = alloca i8, align 1
  %agg.tmp = alloca %"class.std::basic_string_view", align 8
  %agg.tmp1 = alloca %"class.std::basic_string_view", align 8
  %agg.tmp2 = alloca %"class.std::basic_string_view", align 8
  %0 = getelementptr inbounds { i64, ptr }, ptr %parameters, i32 0, i32 0
  store i64 %parameters.coerce0, ptr %0, align 8
  %1 = getelementptr inbounds { i64, ptr }, ptr %parameters, i32 0, i32 1
  store ptr %parameters.coerce1, ptr %1, align 8
  store ptr %p, ptr %p.addr, align 8
  store ptr %field, ptr %field.addr, align 8
  store ptr %options, ptr %options.addr, align 8
  %frombool = zext i1 %for_parse to i8
  store i8 %frombool, ptr %for_parse.addr, align 1
  %2 = load ptr, ptr %p.addr, align 8
  %3 = load ptr, ptr %field.addr, align 8
  %4 = load ptr, ptr %options.addr, align 8
  %5 = load i8, ptr %for_parse.addr, align 1
  %tobool = trunc i8 %5 to i1
  call void @llvm.memcpy.p0.p0.i64(ptr align 8 %agg.tmp, ptr align 8 %parameters, i64 16, i1 false)
  call void @_ZNSt17basic_string_viewIcSt11char_traitsIcEEC2EPKc(ptr noundef nonnull align 8 dereferenceable(16) %agg.tmp1, ptr noundef @.str.116) #3
  call void @_ZNSt17basic_string_viewIcSt11char_traitsIcEEC2EPKc(ptr noundef nonnull align 8 dereferenceable(16) %agg.tmp2, ptr noundef @.str.117) #3
  %6 = getelementptr inbounds { i64, ptr }, ptr %agg.tmp, i32 0, i32 0
  %7 = load i64, ptr %6, align 8
  %8 = getelementptr inbounds { i64, ptr }, ptr %agg.tmp, i32 0, i32 1
  %9 = load ptr, ptr %8, align 8
  call void @_ZN6google8protobuf8compiler3cppL21GenerateUtf8CheckCodeEPNS0_2io7PrinterEPKNS0_15FieldDescriptorERKNS2_7OptionsEbSt17basic_string_viewIcSt11char_traitsIcEESF_SF_(ptr noundef %2, ptr noundef %3, ptr noundef nonnull align 8 dereferenceable(206) %4, i1 noundef zeroext %tobool, i64 %7, ptr %9, ptr noundef byval(%"class.std::basic_string_view") align 8 %agg.tmp1, ptr noundef byval(%"class.std::basic_string_view") align 8 %agg.tmp2)
  ret void
}