; Function Attrs: mustprogress uwtable
define hidden void @_ZN6google8protobuf8compiler3cpp28GenerateUtf8CheckCodeForCordEPNS0_2io7PrinterEPKNS0_15FieldDescriptorERKNS2_7OptionsEbSt17basic_string_viewIcSt11char_traitsIcEE(ptr noundef %p, ptr noundef %field, ptr nocapture noundef nonnull readonly align 8 dereferenceable(206) %options, i1 noundef zeroext %for_parse, i64 %parameters.coerce0, ptr %parameters.coerce1) local_unnamed_addr #4 personality ptr @__gxx_personality_v0 {
entry:
  %agg.tmp1 = alloca %"class.std::basic_string_view", align 8
  %agg.tmp2 = alloca %"class.std::basic_string_view", align 8
  store i64 14, ptr %agg.tmp1, align 8
  %_M_str.i = getelementptr inbounds i8, ptr %agg.tmp1, i64 8
  store ptr @.str.116, ptr %_M_str.i, align 8
  store i64 24, ptr %agg.tmp2, align 8
  %_M_str.i2 = getelementptr inbounds i8, ptr %agg.tmp2, i64 8
  store ptr @.str.117, ptr %_M_str.i2, align 8
  tail call fastcc void @_ZN6google8protobuf8compiler3cppL21GenerateUtf8CheckCodeEPNS0_2io7PrinterEPKNS0_15FieldDescriptorERKNS2_7OptionsEbSt17basic_string_viewIcSt11char_traitsIcEESF_SF_(ptr noundef %p, ptr noundef %field, ptr noundef nonnull align 8 dereferenceable(206) %options, i1 noundef zeroext %for_parse, i64 %parameters.coerce0, ptr %parameters.coerce1, ptr noundef nonnull byval(%"class.std::basic_string_view") align 8 %agg.tmp1, ptr noundef nonnull byval(%"class.std::basic_string_view") align 8 %agg.tmp2)
  ret void
}